target datalayout = "e-m:e-p270:32:32-p271:32:32-p272:64:64-i64:64-i128:128-f80:128-n8:16:32:64-S128"
target triple = "x86_64-pc-linux-gnu"

%"class.llvm::MCStreamer" = type { ptr, ptr, %"class.std::unique_ptr", %"class.std::vector", %"class.llvm::SmallVector", %"class.std::vector.2", ptr, i64, %"class.llvm::SmallVector.7", ptr, i32, i8, i8, ptr }
%"class.std::unique_ptr" = type { %"struct.std::__uniq_ptr_data" }
%"struct.std::__uniq_ptr_data" = type { %"class.std::__uniq_ptr_impl" }
%"class.std::__uniq_ptr_impl" = type { %"class.std::tuple" }
%"class.std::tuple" = type { %"struct.std::_Tuple_impl" }
%"struct.std::_Tuple_impl" = type { %"struct.std::_Head_base.1" }
%"struct.std::_Head_base.1" = type { ptr }
%"class.std::vector" = type { %"struct.std::_Vector_base" }
%"struct.std::_Vector_base" = type { %"struct.std::_Vector_base<llvm::MCDwarfFrameInfo, std::allocator<llvm::MCDwarfFrameInfo>>::_Vector_impl" }
%"struct.std::_Vector_base<llvm::MCDwarfFrameInfo, std::allocator<llvm::MCDwarfFrameInfo>>::_Vector_impl" = type { %"struct.std::_Vector_base<llvm::MCDwarfFrameInfo, std::allocator<llvm::MCDwarfFrameInfo>>::_Vector_impl_data" }
%"struct.std::_Vector_base<llvm::MCDwarfFrameInfo, std::allocator<llvm::MCDwarfFrameInfo>>::_Vector_impl_data" = type { ptr, ptr, ptr }
%"class.llvm::SmallVector" = type { %"class.llvm::SmallVectorImpl", %"struct.llvm::SmallVectorStorage" }
%"class.llvm::SmallVectorImpl" = type { %"class.llvm::SmallVectorTemplateBase" }
%"class.llvm::SmallVectorTemplateBase" = type { %"class.llvm::SmallVectorTemplateCommon" }
%"class.llvm::SmallVectorTemplateCommon" = type { %"class.llvm::SmallVectorBase" }
%"class.llvm::SmallVectorBase" = type { ptr, i32, i32 }
%"struct.llvm::SmallVectorStorage" = type { [16 x i8] }
%"class.std::vector.2" = type { %"struct.std::_Vector_base.3" }
%"struct.std::_Vector_base.3" = type { %"struct.std::_Vector_base<std::unique_ptr<llvm::WinEH::FrameInfo>, std::allocator<std::unique_ptr<llvm::WinEH::FrameInfo>>>::_Vector_impl" }
%"struct.std::_Vector_base<std::unique_ptr<llvm::WinEH::FrameInfo>, std::allocator<std::unique_ptr<llvm::WinEH::FrameInfo>>>::_Vector_impl" = type { %"struct.std::_Vector_base<std::unique_ptr<llvm::WinEH::FrameInfo>, std::allocator<std::unique_ptr<llvm::WinEH::FrameInfo>>>::_Vector_impl_data" }
%"struct.std::_Vector_base<std::unique_ptr<llvm::WinEH::FrameInfo>, std::allocator<std::unique_ptr<llvm::WinEH::FrameInfo>>>::_Vector_impl_data" = type { ptr, ptr, ptr }
%"class.llvm::SmallVector.7" = type { %"class.llvm::SmallVectorImpl.8", %"struct.llvm::SmallVectorStorage.11" }
%"class.llvm::SmallVectorImpl.8" = type { %"class.llvm::SmallVectorTemplateBase.9" }
%"class.llvm::SmallVectorTemplateBase.9" = type { %"class.llvm::SmallVectorTemplateCommon.10" }
%"class.llvm::SmallVectorTemplateCommon.10" = type { %"class.llvm::SmallVectorBase" }
%"struct.llvm::SmallVectorStorage.11" = type { [128 x i8] }
%"class.llvm::MCContext" = type { i32, %"class.llvm::StringRef", %"class.llvm::Triple", ptr, %"class.std::unique_ptr.20", %"class.std::vector.28", %"class.std::function", ptr, ptr, ptr, ptr, %"class.std::unique_ptr.33", %"class.llvm::BumpPtrAllocatorImpl", %"class.llvm::BumpPtrAllocatorImpl", %"class.llvm::SpecificBumpPtrAllocator", %"class.llvm::SpecificBumpPtrAllocator.52", %"class.llvm::SpecificBumpPtrAllocator.53", %"class.llvm::SpecificBumpPtrAllocator.54", %"class.llvm::SpecificBumpPtrAllocator.55", %"class.llvm::SpecificBumpPtrAllocator.56", %"class.llvm::SpecificBumpPtrAllocator.57", %"class.llvm::SpecificBumpPtrAllocator.58", %"class.llvm::SpecificBumpPtrAllocator.59", %"class.llvm::SpecificBumpPtrAllocator.60", %"class.llvm::StringMap", %"class.llvm::DenseMap", %"class.llvm::StringMap.62", %"class.llvm::DenseMap.63", i8, %"class.std::__cxx11::basic_string", %"class.std::unique_ptr.66", i8, %"class.llvm::SmallString", %"class.llvm::SmallVector.80", %"class.std::__cxx11::basic_string", %"class.std::map", %"class.llvm::MCDwarfLoc", i8, i8, i32, %"class.llvm::SetVector", %"class.std::vector.96", %"class.llvm::StringRef", %"class.llvm::StringRef", i16, i8, i8, i8, i32, %"class.llvm::MCPseudoProbeTable", %"class.llvm::StringMap.106", %"class.std::map.107", %"class.llvm::StringMap.113", %"class.std::map.114", %"class.std::map.120", %"class.std::map.126", %"class.llvm::StringMap.132", %"class.llvm::StringMap.133", %"class.llvm::SpecificBumpPtrAllocator.134", i8, ptr, i8, %"class.llvm::StringMap.135", %"class.llvm::DenseMap.136", %"class.llvm::DenseSet.139" }
%"class.llvm::Triple" = type { %"class.std::__cxx11::basic_string", i32, i32, i32, i32, i32, i32 }
%"class.std::unique_ptr.20" = type { %"struct.std::__uniq_ptr_data.21" }
%"struct.std::__uniq_ptr_data.21" = type { %"class.std::__uniq_ptr_impl.22" }
%"class.std::__uniq_ptr_impl.22" = type { %"class.std::tuple.23" }
%"class.std::tuple.23" = type { %"struct.std::_Tuple_impl.24" }
%"struct.std::_Tuple_impl.24" = type { %"struct.std::_Head_base.27" }
%"struct.std::_Head_base.27" = type { ptr }
%"class.std::vector.28" = type { %"struct.std::_Vector_base.29" }
%"struct.std::_Vector_base.29" = type { %"struct.std::_Vector_base<const llvm::MDNode *, std::allocator<const llvm::MDNode *>>::_Vector_impl" }
%"struct.std::_Vector_base<const llvm::MDNode *, std::allocator<const llvm::MDNode *>>::_Vector_impl" = type { %"struct.std::_Vector_base<const llvm::MDNode *, std::allocator<const llvm::MDNode *>>::_Vector_impl_data" }
%"struct.std::_Vector_base<const llvm::MDNode *, std::allocator<const llvm::MDNode *>>::_Vector_impl_data" = type { ptr, ptr, ptr }
%"class.std::function" = type { %"class.std::_Function_base", ptr }
%"class.std::_Function_base" = type { %"union.std::_Any_data", ptr }
%"union.std::_Any_data" = type { %"union.std::_Nocopy_types" }
%"union.std::_Nocopy_types" = type { { i64, i64 } }
%"class.std::unique_ptr.33" = type { %"struct.std::__uniq_ptr_data.34" }
%"struct.std::__uniq_ptr_data.34" = type { %"class.std::__uniq_ptr_impl.35" }
%"class.std::__uniq_ptr_impl.35" = type { %"class.std::tuple.36" }
%"class.std::tuple.36" = type { %"struct.std::_Tuple_impl.37" }
%"struct.std::_Tuple_impl.37" = type { %"struct.std::_Head_base.40" }
%"struct.std::_Head_base.40" = type { ptr }
%"class.llvm::BumpPtrAllocatorImpl" = type { ptr, ptr, %"class.llvm::SmallVector.42", %"class.llvm::SmallVector.47", i64, i64 }
%"class.llvm::SmallVector.42" = type { %"class.llvm::SmallVectorImpl.43", %"struct.llvm::SmallVectorStorage.46" }
%"class.llvm::SmallVectorImpl.43" = type { %"class.llvm::SmallVectorTemplateBase.44" }
%"class.llvm::SmallVectorTemplateBase.44" = type { %"class.llvm::SmallVectorTemplateCommon.45" }
%"class.llvm::SmallVectorTemplateCommon.45" = type { %"class.llvm::SmallVectorBase" }
%"struct.llvm::SmallVectorStorage.46" = type { [32 x i8] }
%"class.llvm::SmallVector.47" = type { %"class.llvm::SmallVectorImpl.48" }
%"class.llvm::SmallVectorImpl.48" = type { %"class.llvm::SmallVectorTemplateBase.49" }
%"class.llvm::SmallVectorTemplateBase.49" = type { %"class.llvm::SmallVectorTemplateCommon.50" }
%"class.llvm::SmallVectorTemplateCommon.50" = type { %"class.llvm::SmallVectorBase" }
%"class.llvm::SpecificBumpPtrAllocator" = type { %"class.llvm::BumpPtrAllocatorImpl" }
%"class.llvm::SpecificBumpPtrAllocator.52" = type { %"class.llvm::BumpPtrAllocatorImpl" }
%"class.llvm::SpecificBumpPtrAllocator.53" = type { %"class.llvm::BumpPtrAllocatorImpl" }
%"class.llvm::SpecificBumpPtrAllocator.54" = type { %"class.llvm::BumpPtrAllocatorImpl" }
%"class.llvm::SpecificBumpPtrAllocator.55" = type { %"class.llvm::BumpPtrAllocatorImpl" }
%"class.llvm::SpecificBumpPtrAllocator.56" = type { %"class.llvm::BumpPtrAllocatorImpl" }
%"class.llvm::SpecificBumpPtrAllocator.57" = type { %"class.llvm::BumpPtrAllocatorImpl" }
%"class.llvm::SpecificBumpPtrAllocator.58" = type { %"class.llvm::BumpPtrAllocatorImpl" }
%"class.llvm::SpecificBumpPtrAllocator.59" = type { %"class.llvm::BumpPtrAllocatorImpl" }
%"class.llvm::SpecificBumpPtrAllocator.60" = type { %"class.llvm::BumpPtrAllocatorImpl" }
%"class.llvm::StringMap" = type { %"class.llvm::StringMapImpl", %"class.llvm::detail::AllocatorHolder.61" }
%"class.llvm::StringMapImpl" = type { ptr, i32, i32, i32, i32 }
%"class.llvm::detail::AllocatorHolder.61" = type { ptr }
%"class.llvm::DenseMap" = type <{ ptr, i32, i32, i32, [4 x i8] }>
%"class.llvm::StringMap.62" = type { %"class.llvm::StringMapImpl", %"class.llvm::detail::AllocatorHolder.61" }
%"class.llvm::DenseMap.63" = type <{ ptr, i32, i32, i32, [4 x i8] }>
%"class.std::unique_ptr.66" = type { %"struct.std::__uniq_ptr_data.67" }
%"struct.std::__uniq_ptr_data.67" = type { %"class.std::__uniq_ptr_impl.68" }
%"class.std::__uniq_ptr_impl.68" = type { %"class.std::tuple.69" }
%"class.std::tuple.69" = type { %"struct.std::_Tuple_impl.70" }
%"struct.std::_Tuple_impl.70" = type { %"struct.std::_Head_base.73" }
%"struct.std::_Head_base.73" = type { ptr }
%"class.llvm::SmallString" = type { %"class.llvm::SmallVector.74" }
%"class.llvm::SmallVector.74" = type { %"class.llvm::SmallVectorImpl.75", %"struct.llvm::SmallVectorStorage.79" }
%"class.llvm::SmallVectorImpl.75" = type { %"class.llvm::SmallVectorTemplateBase.76" }
%"class.llvm::SmallVectorTemplateBase.76" = type { %"class.llvm::SmallVectorTemplateCommon.77" }
%"class.llvm::SmallVectorTemplateCommon.77" = type { %"class.llvm::SmallVectorBase.78" }
%"class.llvm::SmallVectorBase.78" = type { ptr, i64, i64 }
%"struct.llvm::SmallVectorStorage.79" = type { [128 x i8] }
%"class.llvm::SmallVector.80" = type { %"class.llvm::SmallVectorImpl.81" }
%"class.llvm::SmallVectorImpl.81" = type { %"class.llvm::SmallVectorTemplateBase.82" }
%"class.llvm::SmallVectorTemplateBase.82" = type { %"class.llvm::SmallVectorTemplateCommon.83" }
%"class.llvm::SmallVectorTemplateCommon.83" = type { %"class.llvm::SmallVectorBase" }
%"class.std::__cxx11::basic_string" = type { %"struct.std::__cxx11::basic_string<char>::_Alloc_hider", i64, %union.anon }
%"struct.std::__cxx11::basic_string<char>::_Alloc_hider" = type { ptr }
%union.anon = type { i64, [8 x i8] }
%"class.std::map" = type { %"class.std::_Rb_tree" }
%"class.std::_Rb_tree" = type { %"struct.std::_Rb_tree<unsigned int, std::pair<const unsigned int, llvm::MCDwarfLineTable>, std::_Select1st<std::pair<const unsigned int, llvm::MCDwarfLineTable>>, std::less<unsigned int>>::_Rb_tree_impl" }
%"struct.std::_Rb_tree<unsigned int, std::pair<const unsigned int, llvm::MCDwarfLineTable>, std::_Select1st<std::pair<const unsigned int, llvm::MCDwarfLineTable>>, std::less<unsigned int>>::_Rb_tree_impl" = type { [8 x i8], %"struct.std::_Rb_tree_header" }
%"struct.std::_Rb_tree_header" = type { %"struct.std::_Rb_tree_node_base", i64 }
%"struct.std::_Rb_tree_node_base" = type { i32, ptr, ptr, ptr }
%"class.llvm::MCDwarfLoc" = type { i32, i32, i16, i8, i8, i32 }
%"class.llvm::SetVector" = type { %"class.llvm::DenseSet", %"class.llvm::SmallVector.91" }
%"class.llvm::DenseSet" = type { %"class.llvm::detail::DenseSetImpl" }
%"class.llvm::detail::DenseSetImpl" = type { %"class.llvm::DenseMap.88" }
%"class.llvm::DenseMap.88" = type <{ ptr, i32, i32, i32, [4 x i8] }>
%"class.llvm::SmallVector.91" = type { %"class.llvm::SmallVectorImpl.92" }
%"class.llvm::SmallVectorImpl.92" = type { %"class.llvm::SmallVectorTemplateBase.93" }
%"class.llvm::SmallVectorTemplateBase.93" = type { %"class.llvm::SmallVectorTemplateCommon.94" }
%"class.llvm::SmallVectorTemplateCommon.94" = type { %"class.llvm::SmallVectorBase" }
%"class.std::vector.96" = type { %"struct.std::_Vector_base.97" }
%"struct.std::_Vector_base.97" = type { %"struct.std::_Vector_base<llvm::MCGenDwarfLabelEntry, std::allocator<llvm::MCGenDwarfLabelEntry>>::_Vector_impl" }
%"struct.std::_Vector_base<llvm::MCGenDwarfLabelEntry, std::allocator<llvm::MCGenDwarfLabelEntry>>::_Vector_impl" = type { %"struct.std::_Vector_base<llvm::MCGenDwarfLabelEntry, std::allocator<llvm::MCGenDwarfLabelEntry>>::_Vector_impl_data" }
%"struct.std::_Vector_base<llvm::MCGenDwarfLabelEntry, std::allocator<llvm::MCGenDwarfLabelEntry>>::_Vector_impl_data" = type { ptr, ptr, ptr }
%"class.llvm::StringRef" = type { ptr, i64 }
%"class.llvm::MCPseudoProbeTable" = type { %"class.llvm::MCPseudoProbeSections" }
%"class.llvm::MCPseudoProbeSections" = type { %"class.std::unordered_map" }
%"class.std::unordered_map" = type { %"class.std::_Hashtable" }
%"class.std::_Hashtable" = type { ptr, i64, %"struct.std::__detail::_Hash_node_base", i64, %"struct.std::__detail::_Prime_rehash_policy", ptr }
%"struct.std::__detail::_Hash_node_base" = type { ptr }
%"struct.std::__detail::_Prime_rehash_policy" = type { float, i64 }
%"class.llvm::StringMap.106" = type { %"class.llvm::StringMapImpl" }
%"class.std::map.107" = type { %"class.std::_Rb_tree.108" }
%"class.std::_Rb_tree.108" = type { %"struct.std::_Rb_tree<llvm::MCContext::COFFSectionKey, std::pair<const llvm::MCContext::COFFSectionKey, llvm::MCSectionCOFF *>, std::_Select1st<std::pair<const llvm::MCContext::COFFSectionKey, llvm::MCSectionCOFF *>>, std::less<llvm::MCContext::COFFSectionKey>>::_Rb_tree_impl" }
%"struct.std::_Rb_tree<llvm::MCContext::COFFSectionKey, std::pair<const llvm::MCContext::COFFSectionKey, llvm::MCSectionCOFF *>, std::_Select1st<std::pair<const llvm::MCContext::COFFSectionKey, llvm::MCSectionCOFF *>>, std::less<llvm::MCContext::COFFSectionKey>>::_Rb_tree_impl" = type { [8 x i8], %"struct.std::_Rb_tree_header" }
%"class.llvm::StringMap.113" = type { %"class.llvm::StringMapImpl" }
%"class.std::map.114" = type { %"class.std::_Rb_tree.115" }
%"class.std::_Rb_tree.115" = type { %"struct.std::_Rb_tree<std::__cxx11::basic_string<char>, std::pair<const std::__cxx11::basic_string<char>, llvm::MCSectionGOFF *>, std::_Select1st<std::pair<const std::__cxx11::basic_string<char>, llvm::MCSectionGOFF *>>, std::less<std::__cxx11::basic_string<char>>>::_Rb_tree_impl" }
%"struct.std::_Rb_tree<std::__cxx11::basic_string<char>, std::pair<const std::__cxx11::basic_string<char>, llvm::MCSectionGOFF *>, std::_Select1st<std::pair<const std::__cxx11::basic_string<char>, llvm::MCSectionGOFF *>>, std::less<std::__cxx11::basic_string<char>>>::_Rb_tree_impl" = type { [8 x i8], %"struct.std::_Rb_tree_header" }
%"class.std::map.120" = type { %"class.std::_Rb_tree.121" }
%"class.std::_Rb_tree.121" = type { %"struct.std::_Rb_tree<llvm::MCContext::WasmSectionKey, std::pair<const llvm::MCContext::WasmSectionKey, llvm::MCSectionWasm *>, std::_Select1st<std::pair<const llvm::MCContext::WasmSectionKey, llvm::MCSectionWasm *>>, std::less<llvm::MCContext::WasmSectionKey>>::_Rb_tree_impl" }
%"struct.std::_Rb_tree<llvm::MCContext::WasmSectionKey, std::pair<const llvm::MCContext::WasmSectionKey, llvm::MCSectionWasm *>, std::_Select1st<std::pair<const llvm::MCContext::WasmSectionKey, llvm::MCSectionWasm *>>, std::less<llvm::MCContext::WasmSectionKey>>::_Rb_tree_impl" = type { [8 x i8], %"struct.std::_Rb_tree_header" }
%"class.std::map.126" = type { %"class.std::_Rb_tree.127" }
%"class.std::_Rb_tree.127" = type { %"struct.std::_Rb_tree<llvm::MCContext::XCOFFSectionKey, std::pair<const llvm::MCContext::XCOFFSectionKey, llvm::MCSectionXCOFF *>, std::_Select1st<std::pair<const llvm::MCContext::XCOFFSectionKey, llvm::MCSectionXCOFF *>>, std::less<llvm::MCContext::XCOFFSectionKey>>::_Rb_tree_impl" }
%"struct.std::_Rb_tree<llvm::MCContext::XCOFFSectionKey, std::pair<const llvm::MCContext::XCOFFSectionKey, llvm::MCSectionXCOFF *>, std::_Select1st<std::pair<const llvm::MCContext::XCOFFSectionKey, llvm::MCSectionXCOFF *>>, std::less<llvm::MCContext::XCOFFSectionKey>>::_Rb_tree_impl" = type { [8 x i8], %"struct.std::_Rb_tree_header" }
%"class.llvm::StringMap.132" = type { %"class.llvm::StringMapImpl" }
%"class.llvm::StringMap.133" = type { %"class.llvm::StringMapImpl" }
%"class.llvm::SpecificBumpPtrAllocator.134" = type { %"class.llvm::BumpPtrAllocatorImpl" }
%"class.llvm::StringMap.135" = type { %"class.llvm::StringMapImpl" }
%"class.llvm::DenseMap.136" = type <{ ptr, i32, i32, i32, [4 x i8] }>
%"class.llvm::DenseSet.139" = type { %"class.llvm::detail::DenseSetImpl.140" }
%"class.llvm::detail::DenseSetImpl.140" = type { %"class.llvm::DenseMap.141" }
%"class.llvm::DenseMap.141" = type <{ ptr, i32, i32, i32, [4 x i8] }>
%"class.llvm::Twine" = type <{ %"union.llvm::Twine::Child", %"union.llvm::Twine::Child", i8, i8, [6 x i8] }>
%"union.llvm::Twine::Child" = type { %struct.anon }
%struct.anon = type { ptr, i64 }

@.str.26 = private unnamed_addr constant [13 x i8] c"DWARF64 Mark\00", align 1

; Function Attrs: mustprogress nounwind uwtable
define linkonce_odr hidden void @_ZN4llvm10MCStreamer9emitInt32Em(ptr noundef nonnull align 8 dereferenceable(288) %0, i64 noundef %1) #0 comdat align 2 {
  %3 = alloca ptr, align 8
  %4 = alloca i64, align 8
  store ptr %0, ptr %3, align 8
  store i64 %1, ptr %4, align 8
  %5 = load ptr, ptr %3, align 8
  %6 = load i64, ptr %4, align 8
  %7 = load ptr, ptr %5, align 8
  %8 = getelementptr inbounds ptr, ptr %7, i64 65
  %9 = load ptr, ptr %8, align 8
  call void %9(ptr noundef nonnull align 8 dereferenceable(288) %5, i64 noundef %6, i32 noundef 4)
  ret void
}

; Function Attrs: mustprogress nounwind uwtable
define linkonce_odr hidden void @_ZN4llvm5TwineC2EPKc(ptr noundef nonnull align 8 dereferenceable(34) %0, ptr noundef %1) unnamed_addr #0 comdat align 2 {
  %3 = alloca ptr, align 8
  %4 = alloca ptr, align 8
  store ptr %0, ptr %3, align 8
  store ptr %1, ptr %4, align 8
  %5 = load ptr, ptr %3, align 8
  %6 = getelementptr inbounds nuw %"class.llvm::Twine", ptr %5, i32 0, i32 2
  store i8 1, ptr %6, align 8
  %7 = getelementptr inbounds nuw %"class.llvm::Twine", ptr %5, i32 0, i32 3
  store i8 1, ptr %7, align 1
  %8 = load ptr, ptr %4, align 8
  %9 = getelementptr inbounds i8, ptr %8, i64 0
  %10 = load i8, ptr %9, align 1
  %11 = sext i8 %10 to i32
  %12 = icmp ne i32 %11, 0
  br i1 %12, label %13, label %17

13:                                               ; preds = %2
  %14 = load ptr, ptr %4, align 8
  %15 = getelementptr inbounds nuw %"class.llvm::Twine", ptr %5, i32 0, i32 0
  store ptr %14, ptr %15, align 8
  %16 = getelementptr inbounds nuw %"class.llvm::Twine", ptr %5, i32 0, i32 2
  store i8 3, ptr %16, align 8
  br label %19

17:                                               ; preds = %2
  %18 = getelementptr inbounds nuw %"class.llvm::Twine", ptr %5, i32 0, i32 2
  store i8 1, ptr %18, align 8
  br label %19

19:                                               ; preds = %17, %13
  ret void
}

; Function Attrs: mustprogress nounwind uwtable
define linkonce_odr hidden noundef zeroext i8 @_ZNK4llvm9MCContext14getDwarfFormatEv(ptr noundef nonnull align 8 dereferenceable(2432) %0) #0 comdat align 2 {
  %2 = alloca ptr, align 8
  store ptr %0, ptr %2, align 8
  %3 = load ptr, ptr %2, align 8
  %4 = getelementptr inbounds nuw %"class.llvm::MCContext", ptr %3, i32 0, i32 45
  %5 = load i8, ptr %4, align 2
  ret i8 %5
}

; Function Attrs: mustprogress nounwind uwtable
define dso_local void @_ZN4llvm10MCStreamer20maybeEmitDwarf64MarkEv(ptr noundef nonnull align 8 dereferenceable(288) %0) #0 align 2 {
  %2 = alloca ptr, align 8
  %3 = alloca %"class.llvm::Twine", align 8
  store ptr %0, ptr %2, align 8
  %4 = load ptr, ptr %2, align 8
  %5 = getelementptr inbounds nuw %"class.llvm::MCStreamer", ptr %4, i32 0, i32 1
  %6 = load ptr, ptr %5, align 8
  %7 = call noundef zeroext i8 @_ZNK4llvm9MCContext14getDwarfFormatEv(ptr noundef nonnull align 8 dereferenceable(2432) %6)
  %8 = zext i8 %7 to i32
  %9 = icmp ne i32 %8, 1
  br i1 %9, label %10, label %11

10:                                               ; preds = %1
  br label %15

11:                                               ; preds = %1
  call void @_ZN4llvm5TwineC2EPKc(ptr noundef nonnull align 8 dereferenceable(34) %3, ptr noundef @.str.26)
  %12 = load ptr, ptr %4, align 8
  %13 = getelementptr inbounds ptr, ptr %12, i64 15
  %14 = load ptr, ptr %13, align 8
  call void %14(ptr noundef nonnull align 8 dereferenceable(288) %4, ptr noundef nonnull align 8 dereferenceable(34) %3, i1 noundef zeroext true)
  call void @_ZN4llvm10MCStreamer9emitInt32Em(ptr noundef nonnull align 8 dereferenceable(288) %4, i64 noundef 4294967295)
  br label %15

15:                                               ; preds = %11, %10
  ret void
}