; Function Attrs: mustprogress nounwind uwtable
define dso_local void @_ZN4llvm10MCStreamer20maybeEmitDwarf64MarkEv(ptr noundef nonnull align 8 dereferenceable(288) %0) local_unnamed_addr #0 align 2 {
  %2 = alloca %"class.llvm::Twine", align 8
  %3 = getelementptr inbounds nuw i8, ptr %0, i64 8
  %4 = load ptr, ptr %3, align 8
  %5 = getelementptr inbounds nuw i8, ptr %4, i64 1882
  %6 = load i8, ptr %5, align 2
  %.not = icmp eq i8 %6, 1
  br i1 %.not, label %7, label %16

7:                                                ; preds = %1
  %8 = getelementptr inbounds nuw i8, ptr %2, i64 32
  %9 = getelementptr inbounds nuw i8, ptr %2, i64 33
  store i8 1, ptr %9, align 1
  store ptr @.str.26, ptr %2, align 8
  store i8 3, ptr %8, align 8
  %10 = load ptr, ptr %0, align 8
  %11 = getelementptr inbounds i8, ptr %10, i64 120
  %12 = load ptr, ptr %11, align 8
  call void %12(ptr noundef nonnull align 8 dereferenceable(288) %0, ptr noundef nonnull align 8 dereferenceable(34) %2, i1 noundef zeroext true) #23
  %13 = load ptr, ptr %0, align 8
  %14 = getelementptr inbounds i8, ptr %13, i64 520
  %15 = load ptr, ptr %14, align 8
  call void %15(ptr noundef nonnull align 8 dereferenceable(288) %0, i64 noundef 4294967295, i32 noundef 4) #23
  br label %16

16:                                               ; preds = %1, %7
  ret void
}